target datalayout = "e-m:e-p270:32:32-p271:32:32-p272:64:64-i64:64-i128:128-f80:128-n8:16:32:64-S128"
target triple = "x86_64-pc-linux-gnu"

%struct.AVFormatContext = type { ptr, ptr, ptr, ptr, ptr, i32, i32, ptr, i32, ptr, i32, ptr, ptr, i64, i64, i64, i32, i32, i32, i64, i64, ptr, i32, i32, ptr, i32, i32, i32, i32, ptr, i64, i32, i32, %struct.AVIOInterruptCB, i32, i32, i32, i32, i64, i32, i32, i32, i32, i32, i32, i32, i32, i32, i32, i32, i32, i64, i32, i32, i32, i32, i32, ptr, ptr, ptr, ptr, i32, ptr, ptr, ptr, ptr, i32, ptr, ptr, i64, ptr, ptr, ptr, i64 }
%struct.AVIOInterruptCB = type { ptr, ptr }
%struct.AVStream = type { ptr, i32, i32, ptr, ptr, %struct.AVRational, i64, i64, i64, i32, i32, %struct.AVRational, ptr, %struct.AVRational, %struct.AVPacket, i32, %struct.AVRational, i32 }
%struct.AVPacket = type { ptr, i64, i64, ptr, i32, i32, i32, ptr, i32, i64, i64, ptr, ptr, %struct.AVRational }
%struct.AVRational = type { i32, i32 }
%struct.AVCodecParameters = type { i32, i32, i32, ptr, i32, ptr, i32, i32, i64, i32, i32, i32, i32, i32, i32, %struct.AVRational, %struct.AVRational, i32, i32, i32, i32, i32, i32, i32, %struct.AVChannelLayout, i32, i32, i32, i32, i32, i32 }
%struct.AVChannelLayout = type { i32, i32, %union.anon, ptr }
%union.anon = type { i64 }

; Function Attrs: nounwind uwtable
define internal i32 @vag_read_header(ptr noundef %0) #0 {
  %2 = alloca i32, align 4
  %3 = alloca ptr, align 8
  %4 = alloca ptr, align 8
  %5 = alloca i32, align 4
  store ptr %0, ptr %3, align 8, !tbaa !13
  call void @llvm.lifetime.start.p0(i64 8, ptr %4) #5
  %6 = load ptr, ptr %3, align 8, !tbaa !13
  %7 = call ptr @avformat_new_stream(ptr noundef %6, ptr noundef null)
  store ptr %7, ptr %4, align 8, !tbaa !15
  %8 = load ptr, ptr %4, align 8, !tbaa !15
  %9 = icmp ne ptr %8, null
  br i1 %9, label %11, label %10

10:                                               ; preds = %1
  store i32 -12, ptr %2, align 4
  store i32 1, ptr %5, align 4
  br label %146

11:                                               ; preds = %1
  %12 = load ptr, ptr %3, align 8, !tbaa !13
  %13 = getelementptr inbounds nuw %struct.AVFormatContext, ptr %12, i32 0, i32 4
  %14 = load ptr, ptr %13, align 8, !tbaa !17
  %15 = call i64 @avio_skip(ptr noundef %14, i64 noundef 4)
  %16 = load ptr, ptr %4, align 8, !tbaa !15
  %17 = getelementptr inbounds nuw %struct.AVStream, ptr %16, i32 0, i32 3
  %18 = load ptr, ptr %17, align 8, !tbaa !32
  %19 = getelementptr inbounds nuw %struct.AVCodecParameters, ptr %18, i32 0, i32 0
  store i32 1, ptr %19, align 8, !tbaa !39
  %20 = load ptr, ptr %4, align 8, !tbaa !15
  %21 = getelementptr inbounds nuw %struct.AVStream, ptr %20, i32 0, i32 3
  %22 = load ptr, ptr %21, align 8, !tbaa !32
  %23 = getelementptr inbounds nuw %struct.AVCodecParameters, ptr %22, i32 0, i32 1
  store i32 69669, ptr %23, align 4, !tbaa !42
  %24 = load ptr, ptr %3, align 8, !tbaa !13
  %25 = getelementptr inbounds nuw %struct.AVFormatContext, ptr %24, i32 0, i32 4
  %26 = load ptr, ptr %25, align 8, !tbaa !17
  %27 = call i32 @avio_rb32(ptr noundef %26)
  %28 = icmp eq i32 %27, 4
  %29 = zext i1 %28 to i32
  %30 = add nsw i32 1, %29
  %31 = load ptr, ptr %4, align 8, !tbaa !15
  %32 = getelementptr inbounds nuw %struct.AVStream, ptr %31, i32 0, i32 3
  %33 = load ptr, ptr %32, align 8, !tbaa !32
  %34 = getelementptr inbounds nuw %struct.AVCodecParameters, ptr %33, i32 0, i32 24
  %35 = getelementptr inbounds nuw %struct.AVChannelLayout, ptr %34, i32 0, i32 1
  store i32 %30, ptr %35, align 4, !tbaa !43
  %36 = load ptr, ptr %3, align 8, !tbaa !13
  %37 = getelementptr inbounds nuw %struct.AVFormatContext, ptr %36, i32 0, i32 4
  %38 = load ptr, ptr %37, align 8, !tbaa !17
  %39 = call i64 @avio_skip(ptr noundef %38, i64 noundef 4)
  %40 = load ptr, ptr %4, align 8, !tbaa !15
  %41 = getelementptr inbounds nuw %struct.AVStream, ptr %40, i32 0, i32 3
  %42 = load ptr, ptr %41, align 8, !tbaa !32
  %43 = getelementptr inbounds nuw %struct.AVCodecParameters, ptr %42, i32 0, i32 24
  %44 = getelementptr inbounds nuw %struct.AVChannelLayout, ptr %43, i32 0, i32 1
  %45 = load i32, ptr %44, align 4, !tbaa !43
  %46 = icmp sgt i32 %45, 1
  br i1 %46, label %47, label %55

47:                                               ; preds = %11
  %48 = load ptr, ptr %3, align 8, !tbaa !13
  %49 = getelementptr inbounds nuw %struct.AVFormatContext, ptr %48, i32 0, i32 4
  %50 = load ptr, ptr %49, align 8, !tbaa !17
  %51 = call i32 @avio_rb32(ptr noundef %50)
  %52 = zext i32 %51 to i64
  %53 = load ptr, ptr %4, align 8, !tbaa !15
  %54 = getelementptr inbounds nuw %struct.AVStream, ptr %53, i32 0, i32 7
  store i64 %52, ptr %54, align 8, !tbaa !44
  br label %65

55:                                               ; preds = %11
  %56 = load ptr, ptr %3, align 8, !tbaa !13
  %57 = getelementptr inbounds nuw %struct.AVFormatContext, ptr %56, i32 0, i32 4
  %58 = load ptr, ptr %57, align 8, !tbaa !17
  %59 = call i32 @avio_rb32(ptr noundef %58)
  %60 = udiv i32 %59, 16
  %61 = mul i32 %60, 28
  %62 = zext i32 %61 to i64
  %63 = load ptr, ptr %4, align 8, !tbaa !15
  %64 = getelementptr inbounds nuw %struct.AVStream, ptr %63, i32 0, i32 7
  store i64 %62, ptr %64, align 8, !tbaa !44
  br label %65

65:                                               ; preds = %55, %47
  %66 = load ptr, ptr %3, align 8, !tbaa !13
  %67 = getelementptr inbounds nuw %struct.AVFormatContext, ptr %66, i32 0, i32 4
  %68 = load ptr, ptr %67, align 8, !tbaa !17
  %69 = call i32 @avio_rb32(ptr noundef %68)
  %70 = load ptr, ptr %4, align 8, !tbaa !15
  %71 = getelementptr inbounds nuw %struct.AVStream, ptr %70, i32 0, i32 3
  %72 = load ptr, ptr %71, align 8, !tbaa !32
  %73 = getelementptr inbounds nuw %struct.AVCodecParameters, ptr %72, i32 0, i32 25
  store i32 %69, ptr %73, align 8, !tbaa !45
  %74 = load ptr, ptr %4, align 8, !tbaa !15
  %75 = getelementptr inbounds nuw %struct.AVStream, ptr %74, i32 0, i32 3
  %76 = load ptr, ptr %75, align 8, !tbaa !32
  %77 = getelementptr inbounds nuw %struct.AVCodecParameters, ptr %76, i32 0, i32 25
  %78 = load i32, ptr %77, align 8, !tbaa !45
  %79 = icmp sle i32 %78, 0
  br i1 %79, label %80, label %81

80:                                               ; preds = %65
  store i32 -1094995529, ptr %2, align 4
  store i32 1, ptr %5, align 4
  br label %146

81:                                               ; preds = %65
  %82 = load ptr, ptr %3, align 8, !tbaa !13
  %83 = getelementptr inbounds nuw %struct.AVFormatContext, ptr %82, i32 0, i32 4
  %84 = load ptr, ptr %83, align 8, !tbaa !17
  %85 = call i64 @avio_seek(ptr noundef %84, i64 noundef 4096, i32 noundef 0)
  %86 = load ptr, ptr %3, align 8, !tbaa !13
  %87 = getelementptr inbounds nuw %struct.AVFormatContext, ptr %86, i32 0, i32 4
  %88 = load ptr, ptr %87, align 8, !tbaa !17
  %89 = call i32 @avio_rl32(ptr noundef %88)
  %90 = icmp eq i32 %89, 1883717974
  br i1 %90, label %91, label %114

91:                                               ; preds = %81
  %92 = load ptr, ptr %4, align 8, !tbaa !15
  %93 = getelementptr inbounds nuw %struct.AVStream, ptr %92, i32 0, i32 3
  %94 = load ptr, ptr %93, align 8, !tbaa !32
  %95 = getelementptr inbounds nuw %struct.AVCodecParameters, ptr %94, i32 0, i32 24
  %96 = getelementptr inbounds nuw %struct.AVChannelLayout, ptr %95, i32 0, i32 1
  %97 = load i32, ptr %96, align 4, !tbaa !43
  %98 = mul nsw i32 4096, %97
  %99 = load ptr, ptr %4, align 8, !tbaa !15
  %100 = getelementptr inbounds nuw %struct.AVStream, ptr %99, i32 0, i32 3
  %101 = load ptr, ptr %100, align 8, !tbaa !32
  %102 = getelementptr inbounds nuw %struct.AVCodecParameters, ptr %101, i32 0, i32 26
  store i32 %98, ptr %102, align 4, !tbaa !46
  %103 = load ptr, ptr %3, align 8, !tbaa !13
  %104 = getelementptr inbounds nuw %struct.AVFormatContext, ptr %103, i32 0, i32 4
  %105 = load ptr, ptr %104, align 8, !tbaa !17
  %106 = call i64 @avio_seek(ptr noundef %105, i64 noundef 0, i32 noundef 0)
  %107 = load ptr, ptr %4, align 8, !tbaa !15
  %108 = getelementptr inbounds nuw %struct.AVStream, ptr %107, i32 0, i32 7
  %109 = load i64, ptr %108, align 8, !tbaa !44
  %110 = sdiv i64 %109, 16
  %111 = mul nsw i64 %110, 28
  %112 = load ptr, ptr %4, align 8, !tbaa !15
  %113 = getelementptr inbounds nuw %struct.AVStream, ptr %112, i32 0, i32 7
  store i64 %111, ptr %113, align 8, !tbaa !44
  br label %139

114:                                              ; preds = %81
  %115 = load ptr, ptr %4, align 8, !tbaa !15
  %116 = getelementptr inbounds nuw %struct.AVStream, ptr %115, i32 0, i32 3
  %117 = load ptr, ptr %116, align 8, !tbaa !32
  %118 = getelementptr inbounds nuw %struct.AVCodecParameters, ptr %117, i32 0, i32 24
  %119 = getelementptr inbounds nuw %struct.AVChannelLayout, ptr %118, i32 0, i32 1
  %120 = load i32, ptr %119, align 4, !tbaa !43
  %121 = mul nsw i32 16, %120
  %122 = load ptr, ptr %4, align 8, !tbaa !15
  %123 = getelementptr inbounds nuw %struct.AVStream, ptr %122, i32 0, i32 3
  %124 = load ptr, ptr %123, align 8, !tbaa !32
  %125 = getelementptr inbounds nuw %struct.AVCodecParameters, ptr %124, i32 0, i32 26
  store i32 %121, ptr %125, align 4, !tbaa !46
  %126 = load ptr, ptr %3, align 8, !tbaa !13
  %127 = getelementptr inbounds nuw %struct.AVFormatContext, ptr %126, i32 0, i32 4
  %128 = load ptr, ptr %127, align 8, !tbaa !17
  %129 = load ptr, ptr %4, align 8, !tbaa !15
  %130 = getelementptr inbounds nuw %struct.AVStream, ptr %129, i32 0, i32 3
  %131 = load ptr, ptr %130, align 8, !tbaa !32
  %132 = getelementptr inbounds nuw %struct.AVCodecParameters, ptr %131, i32 0, i32 24
  %133 = getelementptr inbounds nuw %struct.AVChannelLayout, ptr %132, i32 0, i32 1
  %134 = load i32, ptr %133, align 4, !tbaa !43
  %135 = icmp sgt i32 %134, 1
  %136 = select i1 %135, i32 128, i32 48
  %137 = sext i32 %136 to i64
  %138 = call i64 @avio_seek(ptr noundef %128, i64 noundef %137, i32 noundef 0)
  br label %139

139:                                              ; preds = %114, %91
  %140 = load ptr, ptr %4, align 8, !tbaa !15
  %141 = load ptr, ptr %4, align 8, !tbaa !15
  %142 = getelementptr inbounds nuw %struct.AVStream, ptr %141, i32 0, i32 3
  %143 = load ptr, ptr %142, align 8, !tbaa !32
  %144 = getelementptr inbounds nuw %struct.AVCodecParameters, ptr %143, i32 0, i32 25
  %145 = load i32, ptr %144, align 8, !tbaa !45
  call void @avpriv_set_pts_info(ptr noundef %140, i32 noundef 64, i32 noundef 1, i32 noundef %145)
  store i32 0, ptr %2, align 4
  store i32 1, ptr %5, align 4
  br label %146

146:                                              ; preds = %139, %80, %10
  call void @llvm.lifetime.end.p0(i64 8, ptr %4) #5
  %147 = load i32, ptr %2, align 4
  ret i32 %147
}