; Function Attrs: nounwind uwtable
define internal range(i32 -1094995529, 1) i32 @vag_read_header(ptr noundef %0) #1 {
  %2 = tail call ptr @avformat_new_stream(ptr noundef %0, ptr noundef null) #4
  %.not = icmp eq ptr %2, null
  br i1 %.not, label %59, label %3

3:                                                ; preds = %1
  %4 = getelementptr inbounds nuw i8, ptr %0, i64 32
  %5 = load ptr, ptr %4, align 8, !tbaa !11
  %6 = tail call i64 @avio_skip(ptr noundef %5, i64 noundef 4) #4
  %7 = getelementptr inbounds nuw i8, ptr %2, i64 16
  %8 = load ptr, ptr %7, align 8, !tbaa !26
  store i32 1, ptr %8, align 8, !tbaa !33
  %9 = getelementptr inbounds nuw i8, ptr %8, i64 4
  store i32 69669, ptr %9, align 4, !tbaa !36
  %10 = load ptr, ptr %4, align 8, !tbaa !11
  %11 = tail call i32 @avio_rb32(ptr noundef %10) #4
  %12 = icmp eq i32 %11, 4
  %13 = select i1 %12, i32 2, i32 1
  %14 = load ptr, ptr %7, align 8, !tbaa !26
  %15 = getelementptr inbounds nuw i8, ptr %14, i64 132
  store i32 %13, ptr %15, align 4, !tbaa !37
  %16 = load ptr, ptr %4, align 8, !tbaa !11
  %17 = tail call i64 @avio_skip(ptr noundef %16, i64 noundef 4) #4
  %18 = load ptr, ptr %7, align 8, !tbaa !26
  %19 = getelementptr inbounds nuw i8, ptr %18, i64 132
  %20 = load i32, ptr %19, align 4, !tbaa !37
  %21 = icmp sgt i32 %20, 1
  %22 = load ptr, ptr %4, align 8, !tbaa !11
  %23 = tail call i32 @avio_rb32(ptr noundef %22) #4
  %24 = lshr i32 %23, 4
  %25 = mul i32 %24, 28
  %.sink.in = select i1 %21, i32 %23, i32 %25
  %.sink = zext i32 %.sink.in to i64
  %26 = getelementptr inbounds nuw i8, ptr %2, i64 48
  store i64 %.sink, ptr %26, align 8, !tbaa !38
  %27 = load ptr, ptr %4, align 8, !tbaa !11
  %28 = tail call i32 @avio_rb32(ptr noundef %27) #4
  %29 = load ptr, ptr %7, align 8, !tbaa !26
  %30 = getelementptr inbounds nuw i8, ptr %29, i64 152
  store i32 %28, ptr %30, align 8, !tbaa !39
  %31 = icmp slt i32 %28, 1
  br i1 %31, label %59, label %32

32:                                               ; preds = %3
  %33 = load ptr, ptr %4, align 8, !tbaa !11
  %34 = tail call i64 @avio_seek(ptr noundef %33, i64 noundef 4096, i32 noundef 0) #4
  %35 = load ptr, ptr %4, align 8, !tbaa !11
  %36 = tail call i32 @avio_rl32(ptr noundef %35) #4
  %37 = icmp eq i32 %36, 1883717974
  %38 = load ptr, ptr %7, align 8, !tbaa !26
  %39 = getelementptr inbounds nuw i8, ptr %38, i64 132
  %40 = load i32, ptr %39, align 4, !tbaa !37
  %41 = getelementptr inbounds nuw i8, ptr %38, i64 156
  br i1 %37, label %42, label %49

42:                                               ; preds = %32
  %43 = shl nsw i32 %40, 12
  store i32 %43, ptr %41, align 4, !tbaa !40
  %44 = load ptr, ptr %4, align 8, !tbaa !11
  %45 = tail call i64 @avio_seek(ptr noundef %44, i64 noundef 0, i32 noundef 0) #4
  %46 = load i64, ptr %26, align 8, !tbaa !38
  %47 = sdiv i64 %46, 16
  %48 = mul nsw i64 %47, 28
  store i64 %48, ptr %26, align 8, !tbaa !38
  br label %55

49:                                               ; preds = %32
  %50 = shl nsw i32 %40, 4
  store i32 %50, ptr %41, align 4, !tbaa !40
  %51 = load ptr, ptr %4, align 8, !tbaa !11
  %52 = icmp sgt i32 %40, 1
  %53 = select i1 %52, i64 128, i64 48
  %54 = tail call i64 @avio_seek(ptr noundef %51, i64 noundef %53, i32 noundef 0) #4
  br label %55

55:                                               ; preds = %49, %42
  %56 = load ptr, ptr %7, align 8, !tbaa !26
  %57 = getelementptr inbounds nuw i8, ptr %56, i64 152
  %58 = load i32, ptr %57, align 8, !tbaa !39
  tail call void @avpriv_set_pts_info(ptr noundef nonnull %2, i32 noundef 64, i32 noundef 1, i32 noundef %58) #4
  br label %59

59:                                               ; preds = %3, %1, %55
  %.0 = phi i32 [ 0, %55 ], [ -12, %1 ], [ -1094995529, %3 ]
  ret i32 %.0
}